target datalayout = "e-m:e-p270:32:32-p271:32:32-p272:64:64-i64:64-i128:128-f80:128-n8:16:32:64-S128"
target triple = "x86_64-pc-linux-gnu"

%"class.llvm::SmallPtrSetImplBase.base" = type <{ ptr, ptr, i32, i32, i32 }>
%"class.llvm::StringRef" = type { ptr, i64 }
%"class.llvm::GlobalValue" = type { %"class.llvm::Constant", ptr, i32, i32, ptr }
%"class.llvm::Constant" = type { %"class.llvm::User" }
%"class.llvm::User" = type { %"class.llvm::Value" }
%"class.llvm::Value" = type { i8, i8, i16, i32, ptr, ptr }
%"class.llvm::GlobalObject" = type { %"class.llvm::GlobalValue", ptr }
%"class.llvm::Comdat" = type { ptr, i32, %"class.llvm::SmallPtrSet.155" }
%"class.llvm::SmallPtrSet.155" = type { %"class.llvm::SmallPtrSetImpl.base.157", [2 x ptr] }
%"class.llvm::SmallPtrSetImpl.base.157" = type { %"class.llvm::SmallPtrSetImplBase.base" }

; Function Attrs: mustprogress nounwind uwtable
define linkonce_odr hidden noundef zeroext i1 @_ZN4llvm11GlobalValue21isExternalWeakLinkageENS0_12LinkageTypesE(i32 noundef %0) #0 comdat align 2 {
  %2 = alloca i32, align 4
  store i32 %0, ptr %2, align 4
  %3 = load i32, ptr %2, align 4
  %4 = icmp eq i32 %3, 9
  ret i1 %4
}

; Function Attrs: mustprogress nounwind uwtable
define linkonce_odr hidden noundef zeroext i1 @_ZNK4llvm11GlobalValue22hasExternalWeakLinkageEv(ptr noundef nonnull align 8 dereferenceable(48) %0) #0 comdat align 2 {
  %2 = alloca ptr, align 8
  store ptr %0, ptr %2, align 8
  %3 = load ptr, ptr %2, align 8
  %4 = call noundef i32 @_ZNK4llvm11GlobalValue10getLinkageEv(ptr noundef nonnull align 8 dereferenceable(48) %3)
  %5 = call noundef zeroext i1 @_ZN4llvm11GlobalValue21isExternalWeakLinkageENS0_12LinkageTypesE(i32 noundef %4)
  ret i1 %5
}

; Function Attrs: mustprogress nounwind uwtable
define linkonce_odr hidden noundef zeroext i1 @_ZNK4llvm11GlobalValue20hasDefaultVisibilityEv(ptr noundef nonnull align 8 dereferenceable(48) %0) #0 comdat align 2 {
  %2 = alloca ptr, align 8
  store ptr %0, ptr %2, align 8
  %3 = load ptr, ptr %2, align 8
  %4 = getelementptr inbounds nuw %"class.llvm::GlobalValue", ptr %3, i32 0, i32 2
  %5 = load i32, ptr %4, align 8
  %6 = lshr i32 %5, 4
  %7 = and i32 %6, 3
  %8 = icmp eq i32 %7, 0
  ret i1 %8
}

; Function Attrs: mustprogress nounwind uwtable
define linkonce_odr hidden noundef zeroext i1 @_ZNK4llvm11GlobalValue15hasLocalLinkageEv(ptr noundef nonnull align 8 dereferenceable(48) %0) #0 comdat align 2 {
  %2 = alloca ptr, align 8
  store ptr %0, ptr %2, align 8
  %3 = load ptr, ptr %2, align 8
  %4 = call noundef i32 @_ZNK4llvm11GlobalValue10getLinkageEv(ptr noundef nonnull align 8 dereferenceable(48) %3)
  %5 = call noundef zeroext i1 @_ZN4llvm11GlobalValue14isLocalLinkageENS0_12LinkageTypesE(i32 noundef %4)
  ret i1 %5
}

; Function Attrs: mustprogress nounwind uwtable
define linkonce_odr hidden noundef zeroext i1 @_ZN4llvm11GlobalValue16isPrivateLinkageENS0_12LinkageTypesE(i32 noundef %0) #0 comdat align 2 {
  %2 = alloca i32, align 4
  store i32 %0, ptr %2, align 4
  %3 = load i32, ptr %2, align 4
  %4 = icmp eq i32 %3, 8
  ret i1 %4
}

; Function Attrs: mustprogress nounwind uwtable
define linkonce_odr hidden noundef zeroext i1 @_ZN4llvm11GlobalValue17isInternalLinkageENS0_12LinkageTypesE(i32 noundef %0) #0 comdat align 2 {
  %2 = alloca i32, align 4
  store i32 %0, ptr %2, align 4
  %3 = load i32, ptr %2, align 4
  %4 = icmp eq i32 %3, 7
  ret i1 %4
}

; Function Attrs: mustprogress nounwind uwtable
define linkonce_odr hidden noundef zeroext i1 @_ZNK4llvm11GlobalValue18isImplicitDSOLocalEv(ptr noundef nonnull align 8 dereferenceable(48) %0) #0 comdat align 2 {
  %2 = alloca ptr, align 8
  store ptr %0, ptr %2, align 8
  %3 = load ptr, ptr %2, align 8
  %4 = call noundef zeroext i1 @_ZNK4llvm11GlobalValue15hasLocalLinkageEv(ptr noundef nonnull align 8 dereferenceable(48) %3)
  br i1 %4, label %12, label %5

5:                                                ; preds = %1
  %6 = call noundef zeroext i1 @_ZNK4llvm11GlobalValue20hasDefaultVisibilityEv(ptr noundef nonnull align 8 dereferenceable(48) %3)
  br i1 %6, label %10, label %7

7:                                                ; preds = %5
  %8 = call noundef zeroext i1 @_ZNK4llvm11GlobalValue22hasExternalWeakLinkageEv(ptr noundef nonnull align 8 dereferenceable(48) %3)
  %9 = xor i1 %8, true
  br label %10

10:                                               ; preds = %7, %5
  %11 = phi i1 [ false, %5 ], [ %9, %7 ]
  br label %12

12:                                               ; preds = %10, %1
  %13 = phi i1 [ true, %1 ], [ %11, %10 ]
  ret i1 %13
}

; Function Attrs: mustprogress nounwind uwtable
define linkonce_odr hidden noundef zeroext i1 @_ZN4llvm11GlobalValue14isLocalLinkageENS0_12LinkageTypesE(i32 noundef %0) #0 comdat align 2 {
  %2 = alloca i32, align 4
  store i32 %0, ptr %2, align 4
  %3 = load i32, ptr %2, align 4
  %4 = call noundef zeroext i1 @_ZN4llvm11GlobalValue17isInternalLinkageENS0_12LinkageTypesE(i32 noundef %3)
  br i1 %4, label %8, label %5

5:                                                ; preds = %1
  %6 = load i32, ptr %2, align 4
  %7 = call noundef zeroext i1 @_ZN4llvm11GlobalValue16isPrivateLinkageENS0_12LinkageTypesE(i32 noundef %6)
  br label %8

8:                                                ; preds = %5, %1
  %9 = phi i1 [ true, %1 ], [ %7, %5 ]
  ret i1 %9
}

; Function Attrs: mustprogress nounwind uwtable
define linkonce_odr hidden void @_ZN4llvm6Comdat16setSelectionKindENS0_13SelectionKindE(ptr noundef nonnull align 8 dereferenceable(64) %0, i32 noundef %1) #0 comdat align 2 {
  %3 = alloca ptr, align 8
  %4 = alloca i32, align 4
  store ptr %0, ptr %3, align 8
  store i32 %1, ptr %4, align 4
  %5 = load ptr, ptr %3, align 8
  %6 = load i32, ptr %4, align 4
  %7 = getelementptr inbounds nuw %"class.llvm::Comdat", ptr %5, i32 0, i32 1
  store i32 %6, ptr %7, align 8
  ret void
}

; Function Attrs: mustprogress nounwind uwtable
define linkonce_odr hidden noundef i32 @_ZNK4llvm6Comdat16getSelectionKindEv(ptr noundef nonnull align 8 dereferenceable(64) %0) #0 comdat align 2 {
  %2 = alloca ptr, align 8
  store ptr %0, ptr %2, align 8
  %3 = load ptr, ptr %2, align 8
  %4 = getelementptr inbounds nuw %"class.llvm::Comdat", ptr %3, i32 0, i32 1
  %5 = load i32, ptr %4, align 8
  ret i32 %5
}

; Function Attrs: mustprogress nounwind uwtable
define linkonce_odr hidden noundef ptr @_ZNK4llvm12GlobalObject9getComdatEv(ptr noundef nonnull align 8 dereferenceable(56) %0) #0 comdat align 2 {
  %2 = alloca ptr, align 8
  store ptr %0, ptr %2, align 8
  %3 = load ptr, ptr %2, align 8
  %4 = getelementptr inbounds nuw %"class.llvm::GlobalObject", ptr %3, i32 0, i32 1
  %5 = load ptr, ptr %4, align 8
  ret ptr %5
}

; Function Attrs: mustprogress nounwind uwtable
define linkonce_odr hidden noundef ptr @_ZN4llvm12GlobalObject9getComdatEv(ptr noundef nonnull align 8 dereferenceable(56) %0) #0 comdat align 2 {
  %2 = alloca ptr, align 8
  store ptr %0, ptr %2, align 8
  %3 = load ptr, ptr %2, align 8
  %4 = getelementptr inbounds nuw %"class.llvm::GlobalObject", ptr %3, i32 0, i32 1
  %5 = load ptr, ptr %4, align 8
  ret ptr %5
}

; Function Attrs: mustprogress nounwind uwtable
define linkonce_odr hidden noundef zeroext i1 @_ZNK4llvm12GlobalObject9hasComdatEv(ptr noundef nonnull align 8 dereferenceable(56) %0) #0 comdat align 2 {
  %2 = alloca ptr, align 8
  store ptr %0, ptr %2, align 8
  %3 = load ptr, ptr %2, align 8
  %4 = call noundef ptr @_ZNK4llvm12GlobalObject9getComdatEv(ptr noundef nonnull align 8 dereferenceable(56) %3)
  %5 = icmp ne ptr %4, null
  ret i1 %5
}

; Function Attrs: mustprogress nounwind uwtable
define linkonce_odr hidden void @_ZN4llvm11GlobalValue11setDSOLocalEb(ptr noundef nonnull align 8 dereferenceable(48) %0, i1 noundef zeroext %1) #0 comdat align 2 {
  %3 = alloca ptr, align 8
  %4 = alloca i8, align 1
  store ptr %0, ptr %3, align 8
  %5 = zext i1 %1 to i8
  store i8 %5, ptr %4, align 1
  %6 = load ptr, ptr %3, align 8
  %7 = load i8, ptr %4, align 1
  %8 = trunc i8 %7 to i1
  %9 = zext i1 %8 to i32
  %10 = getelementptr inbounds nuw %"class.llvm::GlobalValue", ptr %6, i32 0, i32 2
  %11 = load i32, ptr %10, align 8
  %12 = and i32 %9, 1
  %13 = shl i32 %12, 14
  %14 = and i32 %11, -16385
  %15 = or i32 %14, %13
  store i32 %15, ptr %10, align 8
  ret void
}

; Function Attrs: mustprogress nounwind uwtable
define linkonce_odr hidden noundef zeroext i1 @_ZNK4llvm11GlobalValue10isDSOLocalEv(ptr noundef nonnull align 8 dereferenceable(48) %0) #0 comdat align 2 {
  %2 = alloca ptr, align 8
  store ptr %0, ptr %2, align 8
  %3 = load ptr, ptr %2, align 8
  %4 = getelementptr inbounds nuw %"class.llvm::GlobalValue", ptr %3, i32 0, i32 2
  %5 = load i32, ptr %4, align 8
  %6 = lshr i32 %5, 14
  %7 = and i32 %6, 1
  %8 = icmp ne i32 %7, 0
  ret i1 %8
}

; Function Attrs: mustprogress nounwind uwtable
define linkonce_odr hidden void @_ZN4llvm11GlobalValue13setVisibilityENS0_15VisibilityTypesE(ptr noundef nonnull align 8 dereferenceable(48) %0, i32 noundef %1) #0 comdat align 2 {
  %3 = alloca ptr, align 8
  %4 = alloca i32, align 4
  store ptr %0, ptr %3, align 8
  store i32 %1, ptr %4, align 4
  %5 = load ptr, ptr %3, align 8
  %6 = load i32, ptr %4, align 4
  %7 = getelementptr inbounds nuw %"class.llvm::GlobalValue", ptr %5, i32 0, i32 2
  %8 = load i32, ptr %7, align 8
  %9 = and i32 %6, 3
  %10 = shl i32 %9, 4
  %11 = and i32 %8, -49
  %12 = or i32 %11, %10
  store i32 %12, ptr %7, align 8
  %13 = call noundef zeroext i1 @_ZNK4llvm11GlobalValue18isImplicitDSOLocalEv(ptr noundef nonnull align 8 dereferenceable(48) %5)
  br i1 %13, label %14, label %15

14:                                               ; preds = %2
  call void @_ZN4llvm11GlobalValue11setDSOLocalEb(ptr noundef nonnull align 8 dereferenceable(48) %5, i1 noundef zeroext true)
  br label %15

15:                                               ; preds = %14, %2
  ret void
}

; Function Attrs: mustprogress nounwind uwtable
define linkonce_odr hidden noundef i32 @_ZNK4llvm11GlobalValue13getVisibilityEv(ptr noundef nonnull align 8 dereferenceable(48) %0) #0 comdat align 2 {
  %2 = alloca ptr, align 8
  store ptr %0, ptr %2, align 8
  %3 = load ptr, ptr %2, align 8
  %4 = getelementptr inbounds nuw %"class.llvm::GlobalValue", ptr %3, i32 0, i32 2
  %5 = load i32, ptr %4, align 8
  %6 = lshr i32 %5, 4
  %7 = and i32 %6, 3
  ret i32 %7
}

; Function Attrs: mustprogress nounwind uwtable
define linkonce_odr hidden void @_ZN4llvm11GlobalValue10setLinkageENS0_12LinkageTypesE(ptr noundef nonnull align 8 dereferenceable(48) %0, i32 noundef %1) #0 comdat align 2 {
  %3 = alloca ptr, align 8
  %4 = alloca i32, align 4
  store ptr %0, ptr %3, align 8
  store i32 %1, ptr %4, align 4
  %5 = load ptr, ptr %3, align 8
  %6 = load i32, ptr %4, align 4
  %7 = call noundef zeroext i1 @_ZN4llvm11GlobalValue14isLocalLinkageENS0_12LinkageTypesE(i32 noundef %6)
  br i1 %7, label %8, label %17

8:                                                ; preds = %2
  %9 = getelementptr inbounds nuw %"class.llvm::GlobalValue", ptr %5, i32 0, i32 2
  %10 = load i32, ptr %9, align 8
  %11 = and i32 %10, -49
  %12 = or i32 %11, 0
  store i32 %12, ptr %9, align 8
  %13 = getelementptr inbounds nuw %"class.llvm::GlobalValue", ptr %5, i32 0, i32 2
  %14 = load i32, ptr %13, align 8
  %15 = and i32 %14, -769
  %16 = or i32 %15, 0
  store i32 %16, ptr %13, align 8
  br label %17

17:                                               ; preds = %8, %2
  %18 = load i32, ptr %4, align 4
  %19 = getelementptr inbounds nuw %"class.llvm::GlobalValue", ptr %5, i32 0, i32 2
  %20 = load i32, ptr %19, align 8
  %21 = and i32 %18, 15
  %22 = and i32 %20, -16
  %23 = or i32 %22, %21
  store i32 %23, ptr %19, align 8
  %24 = call noundef zeroext i1 @_ZNK4llvm11GlobalValue18isImplicitDSOLocalEv(ptr noundef nonnull align 8 dereferenceable(48) %5)
  br i1 %24, label %25, label %26

25:                                               ; preds = %17
  call void @_ZN4llvm11GlobalValue11setDSOLocalEb(ptr noundef nonnull align 8 dereferenceable(48) %5, i1 noundef zeroext true)
  br label %26

26:                                               ; preds = %25, %17
  ret void
}

; Function Attrs: mustprogress nounwind uwtable
define linkonce_odr hidden noundef i32 @_ZNK4llvm11GlobalValue10getLinkageEv(ptr noundef nonnull align 8 dereferenceable(48) %0) #0 comdat align 2 {
  %2 = alloca ptr, align 8
  store ptr %0, ptr %2, align 8
  %3 = load ptr, ptr %2, align 8
  %4 = getelementptr inbounds nuw %"class.llvm::GlobalValue", ptr %3, i32 0, i32 2
  %5 = load i32, ptr %4, align 8
  %6 = and i32 %5, 15
  ret i32 %6
}

; Function Attrs: mustprogress nounwind uwtable
define internal void @_ZL21copyLinkageVisibilityRN4llvm6ModuleEPKNS_14GlobalVariableEPS2_(ptr noundef nonnull align 8 dereferenceable(857) %0, ptr noundef %1, ptr noundef %2) #0 {
  %4 = alloca ptr, align 8
  %5 = alloca ptr, align 8
  %6 = alloca ptr, align 8
  %7 = alloca %"class.llvm::StringRef", align 8
  store ptr %0, ptr %4, align 8
  store ptr %1, ptr %5, align 8
  store ptr %2, ptr %6, align 8
  %8 = load ptr, ptr %6, align 8
  %9 = load ptr, ptr %5, align 8
  %10 = call noundef i32 @_ZNK4llvm11GlobalValue10getLinkageEv(ptr noundef nonnull align 8 dereferenceable(48) %9)
  call void @_ZN4llvm11GlobalValue10setLinkageENS0_12LinkageTypesE(ptr noundef nonnull align 8 dereferenceable(48) %8, i32 noundef %10)
  %11 = load ptr, ptr %6, align 8
  %12 = load ptr, ptr %5, align 8
  %13 = call noundef i32 @_ZNK4llvm11GlobalValue13getVisibilityEv(ptr noundef nonnull align 8 dereferenceable(48) %12)
  call void @_ZN4llvm11GlobalValue13setVisibilityENS0_15VisibilityTypesE(ptr noundef nonnull align 8 dereferenceable(48) %11, i32 noundef %13)
  %14 = load ptr, ptr %6, align 8
  %15 = load ptr, ptr %5, align 8
  %16 = call noundef zeroext i1 @_ZNK4llvm11GlobalValue10isDSOLocalEv(ptr noundef nonnull align 8 dereferenceable(48) %15)
  call void @_ZN4llvm11GlobalValue11setDSOLocalEb(ptr noundef nonnull align 8 dereferenceable(48) %14, i1 noundef zeroext %16)
  %17 = load ptr, ptr %5, align 8
  %18 = call noundef zeroext i1 @_ZNK4llvm12GlobalObject9hasComdatEv(ptr noundef nonnull align 8 dereferenceable(56) %17)
  br i1 %18, label %19, label %38

19:                                               ; preds = %3
  %20 = load ptr, ptr %6, align 8
  %21 = load ptr, ptr %4, align 8
  %22 = load ptr, ptr %6, align 8
  %23 = call { ptr, i64 } @_ZNK4llvm5Value7getNameEv(ptr noundef nonnull align 8 dereferenceable(24) %22)
  %24 = getelementptr inbounds nuw { ptr, i64 }, ptr %7, i32 0, i32 0
  %25 = extractvalue { ptr, i64 } %23, 0
  store ptr %25, ptr %24, align 8
  %26 = getelementptr inbounds nuw { ptr, i64 }, ptr %7, i32 0, i32 1
  %27 = extractvalue { ptr, i64 } %23, 1
  store i64 %27, ptr %26, align 8
  %28 = getelementptr inbounds nuw { ptr, i64 }, ptr %7, i32 0, i32 0
  %29 = load ptr, ptr %28, align 8
  %30 = getelementptr inbounds nuw { ptr, i64 }, ptr %7, i32 0, i32 1
  %31 = load i64, ptr %30, align 8
  %32 = call noundef ptr @_ZN4llvm6Module17getOrInsertComdatENS_9StringRefE(ptr noundef nonnull align 8 dereferenceable(857) %21, ptr %29, i64 %31)
  call void @_ZN4llvm12GlobalObject9setComdatEPNS_6ComdatE(ptr noundef nonnull align 8 dereferenceable(56) %20, ptr noundef %32)
  %33 = load ptr, ptr %6, align 8
  %34 = call noundef ptr @_ZN4llvm12GlobalObject9getComdatEv(ptr noundef nonnull align 8 dereferenceable(56) %33)
  %35 = load ptr, ptr %5, align 8
  %36 = call noundef ptr @_ZNK4llvm12GlobalObject9getComdatEv(ptr noundef nonnull align 8 dereferenceable(56) %35)
  %37 = call noundef i32 @_ZNK4llvm6Comdat16getSelectionKindEv(ptr noundef nonnull align 8 dereferenceable(64) %36)
  call void @_ZN4llvm6Comdat16setSelectionKindENS0_13SelectionKindE(ptr noundef nonnull align 8 dereferenceable(64) %34, i32 noundef %37)
  br label %38

38:                                               ; preds = %19, %3
  ret void
}