; Function Attrs: mustprogress nounwind uwtable
define internal fastcc void @_ZL21copyLinkageVisibilityRN4llvm6ModuleEPKNS_14GlobalVariableEPS2_(ptr noundef nonnull align 8 dereferenceable(857) %0, ptr noundef readonly captures(none) %1, ptr noundef %2) unnamed_addr #0 {
  %4 = getelementptr inbounds nuw i8, ptr %1, i64 32
  %5 = load i32, ptr %4, align 8
  %6 = and i32 %5, 15
  %7 = add nsw i32 %6, -7
  %spec.select.i.i = icmp ult i32 %7, 2
  %8 = getelementptr inbounds nuw i8, ptr %2, i64 32
  %9 = load i32, ptr %8, align 8
  %.v = select i1 %spec.select.i.i, i32 -832, i32 -16
  %10 = and i32 %.v, %9
  %11 = or disjoint i32 %10, %6
  store i32 %11, ptr %8, align 8
  br i1 %spec.select.i.i, label %_ZNK4llvm11GlobalValue18isImplicitDSOLocalEv.exit.thread.i, label %_ZNK4llvm11GlobalValue18isImplicitDSOLocalEv.exit.i

_ZNK4llvm11GlobalValue18isImplicitDSOLocalEv.exit.i: ; preds = %3
  %12 = and i32 %9, 48
  %13 = icmp ne i32 %12, 0
  %14 = icmp ne i32 %6, 9
  %spec.select.i2.i = and i1 %14, %13
  br i1 %spec.select.i2.i, label %_ZNK4llvm11GlobalValue18isImplicitDSOLocalEv.exit.thread.i, label %_ZN4llvm11GlobalValue10setLinkageENS0_12LinkageTypesE.exit

_ZNK4llvm11GlobalValue18isImplicitDSOLocalEv.exit.thread.i: ; preds = %_ZNK4llvm11GlobalValue18isImplicitDSOLocalEv.exit.i, %3
  %15 = or i32 %11, 16384
  store i32 %15, ptr %8, align 8
  br label %_ZN4llvm11GlobalValue10setLinkageENS0_12LinkageTypesE.exit

_ZN4llvm11GlobalValue10setLinkageENS0_12LinkageTypesE.exit: ; preds = %_ZNK4llvm11GlobalValue18isImplicitDSOLocalEv.exit.i, %_ZNK4llvm11GlobalValue18isImplicitDSOLocalEv.exit.thread.i
  %16 = phi i32 [ %11, %_ZNK4llvm11GlobalValue18isImplicitDSOLocalEv.exit.i ], [ %15, %_ZNK4llvm11GlobalValue18isImplicitDSOLocalEv.exit.thread.i ]
  %17 = load i32, ptr %4, align 8
  %18 = and i32 %17, 48
  %19 = and i32 %16, -49
  %20 = or disjoint i32 %19, %18
  store i32 %20, ptr %8, align 8
  %21 = and i32 %16, 15
  %22 = add nsw i32 %21, -7
  %spec.select.i.i.i.i12 = icmp ult i32 %22, 2
  br i1 %spec.select.i.i.i.i12, label %_ZNK4llvm11GlobalValue18isImplicitDSOLocalEv.exit.thread.i15, label %_ZNK4llvm11GlobalValue18isImplicitDSOLocalEv.exit.i13

_ZNK4llvm11GlobalValue18isImplicitDSOLocalEv.exit.i13: ; preds = %_ZN4llvm11GlobalValue10setLinkageENS0_12LinkageTypesE.exit
  %23 = icmp ne i32 %18, 0
  %24 = icmp ne i32 %21, 9
  %spec.select.i.i14 = and i1 %23, %24
  br i1 %spec.select.i.i14, label %_ZNK4llvm11GlobalValue18isImplicitDSOLocalEv.exit.thread.i15, label %_ZN4llvm11GlobalValue13setVisibilityENS0_15VisibilityTypesE.exit

_ZNK4llvm11GlobalValue18isImplicitDSOLocalEv.exit.thread.i15: ; preds = %_ZNK4llvm11GlobalValue18isImplicitDSOLocalEv.exit.i13, %_ZN4llvm11GlobalValue10setLinkageENS0_12LinkageTypesE.exit
  %25 = or i32 %20, 16384
  store i32 %25, ptr %8, align 8
  br label %_ZN4llvm11GlobalValue13setVisibilityENS0_15VisibilityTypesE.exit

_ZN4llvm11GlobalValue13setVisibilityENS0_15VisibilityTypesE.exit: ; preds = %_ZNK4llvm11GlobalValue18isImplicitDSOLocalEv.exit.i13, %_ZNK4llvm11GlobalValue18isImplicitDSOLocalEv.exit.thread.i15
  %26 = phi i32 [ %20, %_ZNK4llvm11GlobalValue18isImplicitDSOLocalEv.exit.i13 ], [ %25, %_ZNK4llvm11GlobalValue18isImplicitDSOLocalEv.exit.thread.i15 ]
  %27 = load i32, ptr %4, align 8
  %28 = and i32 %27, 16384
  %29 = and i32 %26, -16385
  %30 = or disjoint i32 %29, %28
  store i32 %30, ptr %8, align 8
  %31 = getelementptr inbounds nuw i8, ptr %1, i64 48
  %32 = load ptr, ptr %31, align 8
  %.not = icmp eq ptr %32, null
  br i1 %.not, label %44, label %33

33:                                               ; preds = %_ZN4llvm11GlobalValue13setVisibilityENS0_15VisibilityTypesE.exit
  %34 = tail call { ptr, i64 } @_ZNK4llvm5Value7getNameEv(ptr noundef nonnull align 8 dereferenceable(24) %2) #13
  %35 = extractvalue { ptr, i64 } %34, 0
  %36 = extractvalue { ptr, i64 } %34, 1
  %37 = tail call noundef ptr @_ZN4llvm6Module17getOrInsertComdatENS_9StringRefE(ptr noundef nonnull align 8 dereferenceable(857) %0, ptr %35, i64 %36) #13
  tail call void @_ZN4llvm12GlobalObject9setComdatEPNS_6ComdatE(ptr noundef nonnull align 8 dereferenceable(56) %2, ptr noundef %37) #13
  %38 = getelementptr inbounds nuw i8, ptr %2, i64 48
  %39 = load ptr, ptr %38, align 8
  %40 = load ptr, ptr %31, align 8
  %41 = getelementptr inbounds nuw i8, ptr %40, i64 8
  %42 = load i32, ptr %41, align 8
  %43 = getelementptr inbounds nuw i8, ptr %39, i64 8
  store i32 %42, ptr %43, align 8
  br label %44

44:                                               ; preds = %33, %_ZN4llvm11GlobalValue13setVisibilityENS0_15VisibilityTypesE.exit
  ret void
}